target datalayout = "e-m:e-p270:32:32-p271:32:32-p272:64:64-i64:64-i128:128-f80:128-n8:16:32:64-S128"
target triple = "x86_64-unknown-linux-gnu"

%"class.arrow::io::RandomAccessFile.base" = type { %"class.arrow::io::InputStream.base", %"class.arrow::io::Seekable", %"class.std::unique_ptr" }
%"class.arrow::io::InputStream.base" = type { %"class.arrow::io::Readable" }
%"class.arrow::io::Readable" = type { ptr }
%"class.arrow::io::Seekable" = type { ptr }
%"class.std::unique_ptr" = type { %"struct.std::__uniq_ptr_data" }
%"struct.std::__uniq_ptr_data" = type { %"class.std::__uniq_ptr_impl" }
%"class.std::__uniq_ptr_impl" = type { %"class.std::tuple" }
%"class.std::tuple" = type { %"struct.std::_Tuple_impl" }
%"struct.std::_Tuple_impl" = type { %"struct.std::_Head_base.1" }
%"struct.std::_Head_base.1" = type { ptr }
%"class.std::__shared_count" = type { ptr }
%"class.arrow::io::FileInterface.base" = type <{ ptr, %"class.std::enable_shared_from_this", i32 }>
%"class.std::enable_shared_from_this" = type { %"class.std::weak_ptr" }
%"class.std::weak_ptr" = type { %"class.std::__weak_ptr" }
%"class.std::__weak_ptr" = type { ptr, %"class.std::__weak_count" }
%"class.std::__weak_count" = type { ptr }
%"class.std::mutex" = type { %"class.std::__mutex_base" }
%"class.std::__mutex_base" = type { %union.pthread_mutex_t }
%union.pthread_mutex_t = type { %struct.__pthread_mutex_s }
%struct.__pthread_mutex_s = type { i32, i32, i32, i32, i32, i16, i16, %struct.__pthread_internal_list }
%struct.__pthread_internal_list = type { ptr, ptr }
%"class.arrow::Status" = type { ptr }
%"class.arrow::io::OutputStream.base" = type { %"class.arrow::io::Writable" }
%"class.arrow::io::Writable" = type { ptr }
%"class.arrow::io::MemoryMappedFile" = type { %"class.arrow::io::ReadWriteFileInterface.base", %"class.std::shared_ptr.52", %"class.arrow::io::FileInterface.base" }
%"class.arrow::io::ReadWriteFileInterface.base" = type { %"class.arrow::io::RandomAccessFile.base", %"class.arrow::io::WritableFile.base" }
%"class.arrow::io::WritableFile.base" = type { %"class.arrow::io::OutputStream.base", %"class.arrow::io::Seekable" }
%"class.std::shared_ptr.52" = type { %"class.std::__shared_ptr.53" }
%"class.std::__shared_ptr.53" = type { ptr, %"class.std::__shared_count" }
%"class.arrow::io::MemoryMappedFile::MemoryMap" = type { %"class.std::enable_shared_from_this.62", %"class.std::unique_ptr.65", i32, i32, %"class.std::shared_ptr.73", i64, i64, i64, i64, %"class.std::mutex" }
%"class.std::enable_shared_from_this.62" = type { %"class.std::weak_ptr.63" }
%"class.std::weak_ptr.63" = type { %"class.std::__weak_ptr.64" }
%"class.std::__weak_ptr.64" = type { ptr, %"class.std::__weak_count" }
%"class.std::unique_ptr.65" = type { %"struct.std::__uniq_ptr_data.66" }
%"struct.std::__uniq_ptr_data.66" = type { %"class.std::__uniq_ptr_impl.67" }
%"class.std::__uniq_ptr_impl.67" = type { %"class.std::tuple.68" }
%"class.std::tuple.68" = type { %"struct.std::_Tuple_impl.69" }
%"struct.std::_Tuple_impl.69" = type { %"struct.std::_Head_base.72" }
%"struct.std::_Head_base.72" = type { ptr }
%"class.std::shared_ptr.73" = type { %"class.std::__shared_ptr.74" }
%"class.std::__shared_ptr.74" = type { ptr, %"class.std::__shared_count" }
%"class.std::shared_ptr.81" = type { %"class.std::__shared_ptr.82" }
%"class.std::__shared_ptr.82" = type { ptr, %"class.std::__shared_count" }
%"class.arrow::Buffer" = type { ptr, i8, i8, ptr, i64, i64, i8, %"class.std::shared_ptr.81", %"class.std::shared_ptr.84" }
%"class.std::shared_ptr.84" = type { %"class.std::__shared_ptr.85" }
%"class.std::__shared_ptr.85" = type { ptr, %"class.std::__shared_count" }

; Function Attrs: mustprogress nounwind uwtable
define linkonce_odr hidden noundef ptr @_ZNKSt12__shared_ptrIN5arrow2io16MemoryMappedFile9MemoryMap6RegionELN9__gnu_cxx12_Lock_policyE2EE3getEv(ptr noundef nonnull align 8 dereferenceable(16) %this) #1 comdat align 2 {
entry:
  %this.addr = alloca ptr, align 8
  store ptr %this, ptr %this.addr, align 8
  %this1 = load ptr, ptr %this.addr, align 8
  %_M_ptr = getelementptr inbounds %"class.std::__shared_ptr.74", ptr %this1, i32 0, i32 0
  %0 = load ptr, ptr %_M_ptr, align 8
  ret ptr %0
}

; Function Attrs: mustprogress nounwind uwtable
define linkonce_odr hidden noundef ptr @_ZNKSt19__shared_ptr_accessIN5arrow2io16MemoryMappedFile9MemoryMap6RegionELN9__gnu_cxx12_Lock_policyE2ELb0ELb0EE6_M_getEv(ptr noundef nonnull align 1 dereferenceable(1) %this) #1 comdat align 2 {
entry:
  %this.addr = alloca ptr, align 8
  store ptr %this, ptr %this.addr, align 8
  %this1 = load ptr, ptr %this.addr, align 8
  %call = call noundef ptr @_ZNKSt12__shared_ptrIN5arrow2io16MemoryMappedFile9MemoryMap6RegionELN9__gnu_cxx12_Lock_policyE2EE3getEv(ptr noundef nonnull align 8 dereferenceable(16) %this1) #14
  ret ptr %call
}

; Function Attrs: mustprogress nounwind uwtable
define linkonce_odr hidden noundef ptr @_ZN5arrow2io16MemoryMappedFile9MemoryMap6Region4dataEv(ptr noundef nonnull align 8 dereferenceable(80) %this) #1 comdat align 2 {
entry:
  %this.addr = alloca ptr, align 8
  store ptr %this, ptr %this.addr, align 8
  %this1 = load ptr, ptr %this.addr, align 8
  %data_ = getelementptr inbounds %"class.arrow::Buffer", ptr %this1, i32 0, i32 3
  %0 = load ptr, ptr %data_, align 8
  ret ptr %0
}

; Function Attrs: mustprogress nounwind uwtable
define linkonce_odr hidden noundef ptr @_ZNKSt19__shared_ptr_accessIN5arrow2io16MemoryMappedFile9MemoryMap6RegionELN9__gnu_cxx12_Lock_policyE2ELb0ELb0EEptEv(ptr noundef nonnull align 1 dereferenceable(1) %this) #1 comdat align 2 {
entry:
  %this.addr = alloca ptr, align 8
  store ptr %this, ptr %this.addr, align 8
  %this1 = load ptr, ptr %this.addr, align 8
  %call = call noundef ptr @_ZNKSt19__shared_ptr_accessIN5arrow2io16MemoryMappedFile9MemoryMap6RegionELN9__gnu_cxx12_Lock_policyE2ELb0ELb0EE6_M_getEv(ptr noundef nonnull align 1 dereferenceable(1) %this1) #14
  ret ptr %call
}

; Function Attrs: mustprogress nounwind uwtable
define linkonce_odr hidden noundef zeroext i1 @_ZNKSt12__shared_ptrIN5arrow2io16MemoryMappedFile9MemoryMap6RegionELN9__gnu_cxx12_Lock_policyE2EEcvbEv(ptr noundef nonnull align 8 dereferenceable(16) %this) #1 comdat align 2 {
entry:
  %this.addr = alloca ptr, align 8
  store ptr %this, ptr %this.addr, align 8
  %this1 = load ptr, ptr %this.addr, align 8
  %_M_ptr = getelementptr inbounds %"class.std::__shared_ptr.74", ptr %this1, i32 0, i32 0
  %0 = load ptr, ptr %_M_ptr, align 8
  %cmp = icmp ne ptr %0, null
  ret i1 %cmp
}

; Function Attrs: mustprogress nounwind uwtable
define linkonce_odr hidden noundef ptr @_ZNKSt12__shared_ptrIN5arrow2io16MemoryMappedFile9MemoryMapELN9__gnu_cxx12_Lock_policyE2EE3getEv(ptr noundef nonnull align 8 dereferenceable(16) %this) #1 comdat align 2 {
entry:
  %this.addr = alloca ptr, align 8
  store ptr %this, ptr %this.addr, align 8
  %this1 = load ptr, ptr %this.addr, align 8
  %_M_ptr = getelementptr inbounds %"class.std::__shared_ptr.53", ptr %this1, i32 0, i32 0
  %0 = load ptr, ptr %_M_ptr, align 8
  ret ptr %0
}

; Function Attrs: mustprogress nounwind uwtable
define linkonce_odr void @_ZN5arrow6StatusC2Ev(ptr noundef nonnull align 8 dereferenceable(8) %this) unnamed_addr #1 comdat align 2 {
entry:
  %this.addr = alloca ptr, align 8
  store ptr %this, ptr %this.addr, align 8
  %this1 = load ptr, ptr %this.addr, align 8
  %state_ = getelementptr inbounds %"class.arrow::Status", ptr %this1, i32 0, i32 0
  store ptr null, ptr %state_, align 8
  ret void
}

; Function Attrs: mustprogress nounwind uwtable
define linkonce_odr hidden noundef ptr @_ZN5arrow2io16MemoryMappedFile9MemoryMap4dataEv(ptr noundef nonnull align 8 dereferenceable(120) %this) #1 comdat align 2 {
entry:
  %this.addr = alloca ptr, align 8
  store ptr %this, ptr %this.addr, align 8
  %this1 = load ptr, ptr %this.addr, align 8
  %region_ = getelementptr inbounds %"class.arrow::io::MemoryMappedFile::MemoryMap", ptr %this1, i32 0, i32 4
  %call = call noundef zeroext i1 @_ZNKSt12__shared_ptrIN5arrow2io16MemoryMappedFile9MemoryMap6RegionELN9__gnu_cxx12_Lock_policyE2EEcvbEv(ptr noundef nonnull align 8 dereferenceable(16) %region_) #14
  br i1 %call, label %cond.true, label %cond.false

cond.true:                                        ; preds = %entry
  %region_2 = getelementptr inbounds %"class.arrow::io::MemoryMappedFile::MemoryMap", ptr %this1, i32 0, i32 4
  %call3 = call noundef ptr @_ZNKSt19__shared_ptr_accessIN5arrow2io16MemoryMappedFile9MemoryMap6RegionELN9__gnu_cxx12_Lock_policyE2ELb0ELb0EEptEv(ptr noundef nonnull align 1 dereferenceable(1) %region_2) #14
  %call4 = call noundef ptr @_ZN5arrow2io16MemoryMappedFile9MemoryMap6Region4dataEv(ptr noundef nonnull align 8 dereferenceable(80) %call3)
  br label %cond.end

cond.false:                                       ; preds = %entry
  br label %cond.end

cond.end:                                         ; preds = %cond.false, %cond.true
  %cond = phi ptr [ %call4, %cond.true ], [ null, %cond.false ]
  ret ptr %cond
}

; Function Attrs: mustprogress nounwind uwtable
define linkonce_odr hidden noundef ptr @_ZNKSt19__shared_ptr_accessIN5arrow2io16MemoryMappedFile9MemoryMapELN9__gnu_cxx12_Lock_policyE2ELb0ELb0EE6_M_getEv(ptr noundef nonnull align 1 dereferenceable(1) %this) #1 comdat align 2 {
entry:
  %this.addr = alloca ptr, align 8
  store ptr %this, ptr %this.addr, align 8
  %this1 = load ptr, ptr %this.addr, align 8
  %call = call noundef ptr @_ZNKSt12__shared_ptrIN5arrow2io16MemoryMappedFile9MemoryMapELN9__gnu_cxx12_Lock_policyE2EE3getEv(ptr noundef nonnull align 8 dereferenceable(16) %this1) #14
  ret ptr %call
}

; Function Attrs: mustprogress nounwind uwtable
define linkonce_odr void @_ZN5arrow6Status2OKEv(ptr noalias sret(%"class.arrow::Status") align 8 %agg.result) #1 comdat align 2 {
entry:
  %result.ptr = alloca ptr, align 8
  store ptr %agg.result, ptr %result.ptr, align 8
  call void @_ZN5arrow6StatusC2Ev(ptr noundef nonnull align 8 dereferenceable(8) %agg.result) #14
  ret void
}

; Function Attrs: mustprogress nounwind uwtable
define linkonce_odr hidden void @_ZN5arrow2io16MemoryMappedFile9MemoryMap7advanceEl(ptr noundef nonnull align 8 dereferenceable(120) %this, i64 noundef %nbytes) #1 comdat align 2 {
entry:
  %this.addr = alloca ptr, align 8
  %nbytes.addr = alloca i64, align 8
  store ptr %this, ptr %this.addr, align 8
  store i64 %nbytes, ptr %nbytes.addr, align 8
  %this1 = load ptr, ptr %this.addr, align 8
  %position_ = getelementptr inbounds %"class.arrow::io::MemoryMappedFile::MemoryMap", ptr %this1, i32 0, i32 6
  %0 = load i64, ptr %position_, align 8
  %1 = load i64, ptr %nbytes.addr, align 8
  %add = add nsw i64 %0, %1
  %position_2 = getelementptr inbounds %"class.arrow::io::MemoryMappedFile::MemoryMap", ptr %this1, i32 0, i32 6
  store i64 %add, ptr %position_2, align 8
  ret void
}

; Function Attrs: mustprogress nounwind uwtable
define linkonce_odr hidden noundef ptr @_ZN5arrow2io16MemoryMappedFile9MemoryMap4headEv(ptr noundef nonnull align 8 dereferenceable(120) %this) #1 comdat align 2 {
entry:
  %this.addr = alloca ptr, align 8
  store ptr %this, ptr %this.addr, align 8
  %this1 = load ptr, ptr %this.addr, align 8
  %call = call noundef ptr @_ZN5arrow2io16MemoryMappedFile9MemoryMap4dataEv(ptr noundef nonnull align 8 dereferenceable(120) %this1)
  %position_ = getelementptr inbounds %"class.arrow::io::MemoryMappedFile::MemoryMap", ptr %this1, i32 0, i32 6
  %0 = load i64, ptr %position_, align 8
  %add.ptr = getelementptr inbounds i8, ptr %call, i64 %0
  ret ptr %add.ptr
}

; Function Attrs: mustprogress nounwind uwtable
define linkonce_odr hidden noundef ptr @_ZNKSt19__shared_ptr_accessIN5arrow2io16MemoryMappedFile9MemoryMapELN9__gnu_cxx12_Lock_policyE2ELb0ELb0EEptEv(ptr noundef nonnull align 1 dereferenceable(1) %this) #1 comdat align 2 {
entry:
  %this.addr = alloca ptr, align 8
  store ptr %this, ptr %this.addr, align 8
  %this1 = load ptr, ptr %this.addr, align 8
  %call = call noundef ptr @_ZNKSt19__shared_ptr_accessIN5arrow2io16MemoryMappedFile9MemoryMapELN9__gnu_cxx12_Lock_policyE2ELb0ELb0EE6_M_getEv(ptr noundef nonnull align 1 dereferenceable(1) %this1) #14
  ret ptr %call
}

; Function Attrs: mustprogress uwtable
define void @_ZN5arrow2io16MemoryMappedFile13WriteInternalEPKvl(ptr noalias sret(%"class.arrow::Status") align 8 %agg.result, ptr noundef nonnull align 8 dereferenceable(56) %this, ptr noundef %data, i64 noundef %nbytes) #0 align 2 {
entry:
  %result.ptr = alloca ptr, align 8
  %this.addr = alloca ptr, align 8
  %data.addr = alloca ptr, align 8
  %nbytes.addr = alloca i64, align 8
  store ptr %agg.result, ptr %result.ptr, align 8
  store ptr %this, ptr %this.addr, align 8
  store ptr %data, ptr %data.addr, align 8
  store i64 %nbytes, ptr %nbytes.addr, align 8
  %this1 = load ptr, ptr %this.addr, align 8
  %memory_map_ = getelementptr inbounds %"class.arrow::io::MemoryMappedFile", ptr %this1, i32 0, i32 1
  %call = call noundef ptr @_ZNKSt19__shared_ptr_accessIN5arrow2io16MemoryMappedFile9MemoryMapELN9__gnu_cxx12_Lock_policyE2ELb0ELb0EEptEv(ptr noundef nonnull align 1 dereferenceable(1) %memory_map_) #14
  %call2 = call noundef ptr @_ZN5arrow2io16MemoryMappedFile9MemoryMap4headEv(ptr noundef nonnull align 8 dereferenceable(120) %call)
  %0 = load ptr, ptr %data.addr, align 8
  %1 = load i64, ptr %nbytes.addr, align 8
  call void @llvm.memcpy.p0.p0.i64(ptr align 1 %call2, ptr align 1 %0, i64 %1, i1 false)
  %memory_map_3 = getelementptr inbounds %"class.arrow::io::MemoryMappedFile", ptr %this1, i32 0, i32 1
  %call4 = call noundef ptr @_ZNKSt19__shared_ptr_accessIN5arrow2io16MemoryMappedFile9MemoryMapELN9__gnu_cxx12_Lock_policyE2ELb0ELb0EEptEv(ptr noundef nonnull align 1 dereferenceable(1) %memory_map_3) #14
  %2 = load i64, ptr %nbytes.addr, align 8
  call void @_ZN5arrow2io16MemoryMappedFile9MemoryMap7advanceEl(ptr noundef nonnull align 8 dereferenceable(120) %call4, i64 noundef %2)
  call void @_ZN5arrow6Status2OKEv(ptr sret(%"class.arrow::Status") align 8 %agg.result)
  ret void
}