; Function Attrs: mustprogress nofree norecurse nosync nounwind willreturn memory(readwrite, inaccessiblemem: none) uwtable
define void @_ZN5arrow2io16MemoryMappedFile13WriteInternalEPKvl(ptr noalias nocapture writeonly sret(%"class.arrow::Status") align 8 %agg.result, ptr nocapture noundef nonnull readonly align 8 dereferenceable(56) %this, ptr nocapture noundef readonly %data, i64 noundef %nbytes) local_unnamed_addr #14 align 2 {
entry:
  %memory_map_ = getelementptr inbounds i8, ptr %this, i64 40
  %0 = load ptr, ptr %memory_map_, align 8
  %region_.i.i = getelementptr inbounds i8, ptr %0, i64 32
  %1 = load ptr, ptr %region_.i.i, align 8
  %cmp.i.not.i.i = icmp eq ptr %1, null
  br i1 %cmp.i.not.i.i, label %_ZN5arrow2io16MemoryMappedFile9MemoryMap4headEv.exit, label %cond.true.i.i

cond.true.i.i:                                    ; preds = %entry
  %data_.i.i.i = getelementptr inbounds i8, ptr %1, i64 16
  %2 = load ptr, ptr %data_.i.i.i, align 8
  br label %_ZN5arrow2io16MemoryMappedFile9MemoryMap4headEv.exit

_ZN5arrow2io16MemoryMappedFile9MemoryMap4headEv.exit: ; preds = %entry, %cond.true.i.i
  %cond.i.i = phi ptr [ %2, %cond.true.i.i ], [ null, %entry ]
  %position_.i = getelementptr inbounds i8, ptr %0, i64 56
  %3 = load i64, ptr %position_.i, align 8
  %add.ptr.i = getelementptr inbounds i8, ptr %cond.i.i, i64 %3
  tail call void @llvm.memcpy.p0.p0.i64(ptr align 1 %add.ptr.i, ptr align 1 %data, i64 %nbytes, i1 false)
  %4 = load ptr, ptr %memory_map_, align 8
  %position_.i2 = getelementptr inbounds i8, ptr %4, i64 56
  %5 = load i64, ptr %position_.i2, align 8
  %add.i = add nsw i64 %5, %nbytes
  store i64 %add.i, ptr %position_.i2, align 8
  store ptr null, ptr %agg.result, align 8, !alias.scope !352
  ret void
}